; Function Attrs: mustprogress uwtable
define void @_ZN9grpc_core19ContentTypeMetadata6EncodeENS0_9ValueTypeE(ptr noalias nocapture writeonly sret(%"class.grpc_core::StaticSlice") align 8 %agg.result, i8 noundef zeroext %x) local_unnamed_addr #3 align 2 {
entry:
  %0 = icmp ult i8 %x, 3
  br i1 %0, label %switch.lookup, label %do.body

do.body:                                          ; preds = %entry
  tail call void @gpr_unreachable_code(ptr noundef nonnull @.str.9, ptr noundef nonnull @.str.10, i32 noundef 94) #20
  unreachable

switch.lookup:                                    ; preds = %entry
  %1 = zext nneg i8 %x to i64
  %switch.gep = getelementptr inbounds [3 x i64], ptr @switch.table._ZN9grpc_core19ContentTypeMetadata6EncodeENS0_9ValueTypeE, i64 0, i64 %1
  %switch.load = load i64, ptr %switch.gep, align 8
  %2 = zext nneg i8 %x to i64
  %switch.gep7 = getelementptr inbounds [3 x ptr], ptr @switch.table._ZN9grpc_core19ContentTypeMetadata6EncodeENS0_9ValueTypeE.3, i64 0, i64 %2
  %switch.load8 = load ptr, ptr %switch.gep7, align 8
  store ptr inttoptr (i64 1 to ptr), ptr %agg.result, align 8
  %slice.sroa.2.0.agg.result.sroa_idx.i.i5 = getelementptr inbounds i8, ptr %agg.result, i64 8
  store i64 %switch.load, ptr %slice.sroa.2.0.agg.result.sroa_idx.i.i5, align 8
  %slice.sroa.3.0.agg.result.sroa_idx.i.i6 = getelementptr inbounds i8, ptr %agg.result, i64 16
  store ptr %switch.load8, ptr %slice.sroa.3.0.agg.result.sroa_idx.i.i6, align 8
  ret void
}